; Function Attrs: mustprogress uwtable
define noundef signext i8 @_ZNK6icu_7510UnicodeSet15stringsContainsERKNS_13UnicodeStringE(ptr nocapture noundef nonnull readonly align 8 dereferenceable(200) %this, ptr noundef nonnull align 8 dereferenceable(64) %s) local_unnamed_addr #1 align 2 {
entry:
  %strings = getelementptr inbounds i8, ptr %this, i64 80
  %0 = load ptr, ptr %strings, align 8
  %cmp.not = icmp eq ptr %0, null
  br i1 %cmp.not, label %land.end, label %land.rhs

land.rhs:                                         ; preds = %entry
  %call.i = tail call noundef i32 @_ZNK6icu_757UVector7indexOfEPvi(ptr noundef nonnull align 8 dereferenceable(40) %0, ptr noundef nonnull %s, i32 noundef 0)
  %cmp.i = icmp sgt i32 %call.i, -1
  %conv.i = zext i1 %cmp.i to i8
  br label %land.end

land.end:                                         ; preds = %land.rhs, %entry
  %conv = phi i8 [ 0, %entry ], [ %conv.i, %land.rhs ]
  ret i8 %conv
}